TN:
SF:/home/projectx/Desktop/Git_Repo/TrainingCPP/BoostUnitTest/Cmake/CustomList.h
FN:13,_ZN10CustomListIiEC2Ev
FN:19,_ZN10CustomListIiE11getInstanceEv
FN:24,_ZN10CustomListIiE10insertDataEi
FN:29,_ZN10CustomListIiE7getDataEv
FN:41,_ZN10CustomListIiE7displayEv
FN:50,_ZN10CustomListIiE7getSizeEv
FNDA:2,_ZN10CustomListIiEC2Ev
FNDA:10,_ZN10CustomListIiE10insertDataEi
FNDA:8,_ZN10CustomListIiE7getSizeEv
FNDA:4,_ZN10CustomListIiE7getDataEv
FNDA:2,_ZN10CustomListIiE7displayEv
FNDA:12,_ZN10CustomListIiE11getInstanceEv
FNF:6
FNH:6
DA:13,2
DA:19,12
DA:20,12
DA:21,12
DA:24,10
DA:25,20
DA:26,10
DA:27,10
DA:29,4
DA:32,8
DA:33,4
DA:34,4
DA:35,4
DA:38,4
DA:41,2
DA:42,4
DA:43,2
DA:44,8
DA:45,6
DA:47,2
DA:48,2
DA:50,8
DA:51,8
DA:52,8
DA:53,16
LF:25
LH:25
end_of_record
TN:
SF:/home/projectx/Desktop/Git_Repo/TrainingCPP/BoostUnitTest/Cmake/CustomListTest.h
FN:12,_ZN19CustomListTestSuiteL22TestInsertData_invokerEv
FN:12,_ZN19CustomListTestSuite14TestInsertData11test_methodEv
FN:20,_ZN19CustomListTestSuiteL19TestGetData_invokerEv
FN:20,_ZN19CustomListTestSuite11TestGetData11test_methodEv
FN:29,_ZN19CustomListTestSuite11TestGetSize11test_methodEv
FN:29,_ZN19CustomListTestSuiteL19TestGetSize_invokerEv
FN:39,_ZN19CustomListTestSuite11TestDisplay11test_methodEv
FN:39,_ZN19CustomListTestSuiteL19TestDisplay_invokerEv
FN:50,_ZN19CustomListTestSuite13TestSingleton11test_methodEv
FN:50,_ZN19CustomListTestSuiteL21TestSingleton_invokerEv
FNDA:2,_ZN19CustomListTestSuite11TestGetSize11test_methodEv
FNDA:2,_ZN19CustomListTestSuiteL19TestGetData_invokerEv
FNDA:2,_ZN19CustomListTestSuite11TestDisplay11test_methodEv
FNDA:2,_ZN19CustomListTestSuiteL22TestInsertData_invokerEv
FNDA:2,_ZN19CustomListTestSuite11TestGetData11test_methodEv
FNDA:2,_ZN19CustomListTestSuite14TestInsertData11test_methodEv
FNDA:2,_ZN19CustomListTestSuiteL19TestGetSize_invokerEv
FNDA:2,_ZN19CustomListTestSuite13TestSingleton11test_methodEv
FNDA:2,_ZN19CustomListTestSuiteL19TestDisplay_invokerEv
FNDA:2,_ZN19CustomListTestSuiteL21TestSingleton_invokerEv
FNF:10
FNH:10
DA:12,4
DA:13,2
DA:14,2
DA:15,2
DA:16,2
DA:17,2
DA:20,4
DA:21,2
DA:22,2
DA:23,2
DA:24,2
DA:25,2
DA:26,2
DA:29,4
DA:30,2
DA:31,2
DA:32,2
DA:33,2
DA:35,2
DA:36,2
DA:39,4
DA:43,2
DA:44,2
DA:46,2
DA:47,2
DA:50,4
DA:51,2
DA:52,2
DA:54,2
DA:55,2
LF:30
LH:30
end_of_record
